target datalayout = "e-m:e-p270:32:32-p271:32:32-p272:64:64-i64:64-i128:128-f80:128-n8:16:32:64-S128"
target triple = "x86_64-pc-linux-gnu"

@.str.3 = private unnamed_addr constant [13 x i8] c"parse_func.c\00", align 1
@.str.19 = private unnamed_addr constant [27 x i8] c"function %s does not exist\00", align 1
@.str.53 = private unnamed_addr constant [37 x i8] c"could not find a function named \22%s\22\00", align 1
@__func__.LookupFuncName = private unnamed_addr constant [15 x i8] c"LookupFuncName\00", align 1
@.str.54 = private unnamed_addr constant [33 x i8] c"function name \22%s\22 is not unique\00", align 1
@.str.55 = private unnamed_addr constant [64 x i8] c"Specify the argument list to select the function unambiguously.\00", align 1

; Function Attrs: nounwind uwtable
define dso_local i32 @LookupFuncName(ptr noundef %0, i32 noundef %1, ptr noundef %2, i1 noundef zeroext %3) #0 {
  %5 = alloca i32, align 4
  %6 = alloca ptr, align 8
  %7 = alloca i32, align 4
  %8 = alloca ptr, align 8
  %9 = alloca i8, align 1
  %10 = alloca i32, align 4
  %11 = alloca i32, align 4
  %12 = alloca i32, align 4
  store ptr %0, ptr %6, align 8
  store i32 %1, ptr %7, align 4
  store ptr %2, ptr %8, align 8
  %13 = zext i1 %3 to i8
  store i8 %13, ptr %9, align 1
  call void @llvm.lifetime.start.p0(i64 4, ptr %10) #7
  call void @llvm.lifetime.start.p0(i64 4, ptr %11) #7
  %14 = load ptr, ptr %6, align 8
  %15 = load i32, ptr %7, align 4
  %16 = load ptr, ptr %8, align 8
  %17 = load i8, ptr %9, align 1, !range !4, !noundef !5
  %18 = trunc i8 %17 to i1
  %19 = call i32 @LookupFuncNameInternal(i32 noundef 19, ptr noundef %14, i32 noundef %15, ptr noundef %16, i1 noundef zeroext false, i1 noundef zeroext %18, ptr noundef %11)
  store i32 %19, ptr %10, align 4
  %20 = load i32, ptr %10, align 4
  %21 = icmp ne i32 %20, 0
  br i1 %21, label %22, label %24

22:                                               ; preds = %4
  %23 = load i32, ptr %10, align 4
  store i32 %23, ptr %5, align 4
  store i32 1, ptr %12, align 4
  br label %80

24:                                               ; preds = %4
  %25 = load i32, ptr %11, align 4
  switch i32 %25, label %79 [
    i32 0, label %26
    i32 1, label %64
  ]

26:                                               ; preds = %24
  %27 = load i8, ptr %9, align 1, !range !4, !noundef !5
  %28 = trunc i8 %27 to i1
  br i1 %28, label %29, label %30

29:                                               ; preds = %26
  store i32 0, ptr %5, align 4
  store i32 1, ptr %12, align 4
  br label %80

30:                                               ; preds = %26
  %31 = load i32, ptr %7, align 4
  %32 = icmp slt i32 %31, 0
  br i1 %32, label %33, label %47

33:                                               ; preds = %30
  br label %34

34:                                               ; preds = %33
  br i1 true, label %35, label %37

35:                                               ; preds = %34
  %36 = call zeroext i1 @errstart_cold(i32 noundef 21, ptr noundef null) #8
  br i1 %36, label %39, label %44

37:                                               ; preds = %34
  %38 = call zeroext i1 @errstart(i32 noundef 21, ptr noundef null)
  br i1 %38, label %39, label %44

39:                                               ; preds = %37, %35
  %40 = call i32 @errcode(i32 noundef 52461700)
  %41 = load ptr, ptr %6, align 8
  %42 = call ptr @NameListToString(ptr noundef %41)
  %43 = call i32 (ptr, ...) @errmsg(ptr noundef @.str.53, ptr noundef %42)
  call void @errfinish(ptr noundef @.str.3, i32 noundef 2168, ptr noundef @__func__.LookupFuncName)
  br label %44

44:                                               ; preds = %39, %37, %35
  unreachable

45:                                               ; No predecessors!
  br label %46

46:                                               ; preds = %45
  br label %63

47:                                               ; preds = %30
  br label %48

48:                                               ; preds = %47
  br i1 true, label %49, label %51

49:                                               ; preds = %48
  %50 = call zeroext i1 @errstart_cold(i32 noundef 21, ptr noundef null) #8
  br i1 %50, label %53, label %60

51:                                               ; preds = %48
  %52 = call zeroext i1 @errstart(i32 noundef 21, ptr noundef null)
  br i1 %52, label %53, label %60

53:                                               ; preds = %51, %49
  %54 = call i32 @errcode(i32 noundef 52461700)
  %55 = load ptr, ptr %6, align 8
  %56 = load i32, ptr %7, align 4
  %57 = load ptr, ptr %8, align 8
  %58 = call ptr @func_signature_string(ptr noundef %55, i32 noundef %56, ptr noundef null, ptr noundef %57)
  %59 = call i32 (ptr, ...) @errmsg(ptr noundef @.str.19, ptr noundef %58)
  call void @errfinish(ptr noundef @.str.3, i32 noundef 2174, ptr noundef @__func__.LookupFuncName)
  br label %60

60:                                               ; preds = %53, %51, %49
  unreachable

61:                                               ; No predecessors!
  br label %62

62:                                               ; preds = %61
  br label %63

63:                                               ; preds = %62, %46
  br label %79

64:                                               ; preds = %24
  br label %65

65:                                               ; preds = %64
  br i1 true, label %66, label %68

66:                                               ; preds = %65
  %67 = call zeroext i1 @errstart_cold(i32 noundef 21, ptr noundef null) #8
  br i1 %67, label %70, label %76

68:                                               ; preds = %65
  %69 = call zeroext i1 @errstart(i32 noundef 21, ptr noundef null)
  br i1 %69, label %70, label %76

70:                                               ; preds = %68, %66
  %71 = call i32 @errcode(i32 noundef 84439172)
  %72 = load ptr, ptr %6, align 8
  %73 = call ptr @NameListToString(ptr noundef %72)
  %74 = call i32 (ptr, ...) @errmsg(ptr noundef @.str.54, ptr noundef %73)
  %75 = call i32 (ptr, ...) @errhint(ptr noundef @.str.55)
  call void @errfinish(ptr noundef @.str.3, i32 noundef 2183, ptr noundef @__func__.LookupFuncName)
  br label %76

76:                                               ; preds = %70, %68, %66
  unreachable

77:                                               ; No predecessors!
  br label %78

78:                                               ; preds = %77
  br label %79

79:                                               ; preds = %24, %78, %63
  store i32 0, ptr %5, align 4
  store i32 1, ptr %12, align 4
  br label %80

80:                                               ; preds = %79, %29, %22
  call void @llvm.lifetime.end.p0(i64 4, ptr %11) #7
  call void @llvm.lifetime.end.p0(i64 4, ptr %10) #7
  %81 = load i32, ptr %5, align 4
  ret i32 %81
}