; Function Attrs: nounwind uwtable
define dso_local i32 @LookupFuncName(ptr noundef %0, i32 noundef %1, ptr noundef readonly captures(none) %2, i1 noundef zeroext %3) local_unnamed_addr #0 {
  %5 = alloca i32, align 4
  call void @llvm.lifetime.start.p0(i64 4, ptr nonnull %5) #8
  %6 = call fastcc i32 @LookupFuncNameInternal(i32 noundef 19, ptr noundef %0, i32 noundef %1, ptr noundef %2, i1 noundef zeroext false, i1 noundef zeroext %3, ptr noundef %5)
  %.not = icmp eq i32 %6, 0
  br i1 %.not, label %7, label %26

7:                                                ; preds = %4
  %8 = load i32, ptr %5, align 4
  switch i32 %8, label %26 [
    i32 0, label %9
    i32 1, label %20
  ]

9:                                                ; preds = %7
  br i1 %3, label %26, label %10

10:                                               ; preds = %9
  %11 = icmp slt i32 %1, 0
  %12 = tail call zeroext i1 @errstart_cold(i32 noundef 21, ptr noundef null) #9
  tail call void @llvm.assume(i1 %12)
  %13 = tail call i32 @errcode(i32 noundef 52461700) #8
  br i1 %11, label %14, label %17

14:                                               ; preds = %10
  %15 = tail call ptr @NameListToString(ptr noundef %0) #8
  %16 = tail call i32 (ptr, ...) @errmsg(ptr noundef nonnull @.str.53, ptr noundef %15) #8
  tail call void @errfinish(ptr noundef nonnull @.str.3, i32 noundef 2168, ptr noundef nonnull @__func__.LookupFuncName) #8
  unreachable

17:                                               ; preds = %10
  %18 = tail call ptr @func_signature_string(ptr noundef %0, i32 noundef %1, ptr noundef null, ptr noundef %2)
  %19 = tail call i32 (ptr, ...) @errmsg(ptr noundef nonnull @.str.19, ptr noundef %18) #8
  tail call void @errfinish(ptr noundef nonnull @.str.3, i32 noundef 2174, ptr noundef nonnull @__func__.LookupFuncName) #8
  unreachable

20:                                               ; preds = %7
  %21 = tail call zeroext i1 @errstart_cold(i32 noundef 21, ptr noundef null) #9
  tail call void @llvm.assume(i1 %21)
  %22 = tail call i32 @errcode(i32 noundef 84439172) #8
  %23 = tail call ptr @NameListToString(ptr noundef %0) #8
  %24 = tail call i32 (ptr, ...) @errmsg(ptr noundef nonnull @.str.54, ptr noundef %23) #8
  %25 = tail call i32 (ptr, ...) @errhint(ptr noundef nonnull @.str.55) #8
  tail call void @errfinish(ptr noundef nonnull @.str.3, i32 noundef 2183, ptr noundef nonnull @__func__.LookupFuncName) #8
  unreachable

26:                                               ; preds = %7, %9, %4
  call void @llvm.lifetime.end.p0(i64 4, ptr nonnull %5) #8
  ret i32 %6
}